target datalayout = "e-m:e-p270:32:32-p271:32:32-p272:64:64-i64:64-i128:128-f80:128-n8:16:32:64-S128"
target triple = "x86_64-pc-linux-gnu"

%"class.cv::Size_" = type { i32, i32 }
%"class.cv::_InputArray" = type { i32, ptr, %"class.cv::Size_" }
%"class.cv::_OutputArray" = type { %"class.cv::_InputArray" }
%"class.cv::_InputOutputArray" = type { %"class.cv::_OutputArray" }
%"class.cv::TermCriteria" = type { i32, i32, double }

; Function Attrs: inlinehint mustprogress uwtable
define linkonce_odr hidden void @_ZN2cv11_InputArrayC2Ev(ptr noundef nonnull align 8 dereferenceable(24) %0) unnamed_addr #10 comdat align 2 {
  %2 = alloca ptr, align 8
  store ptr %0, ptr %2, align 8, !tbaa !74
  %3 = load ptr, ptr %2, align 8
  %4 = getelementptr inbounds nuw %"class.cv::_InputArray", ptr %3, i32 0, i32 2
  call void @_ZN2cv5Size_IiEC2Ev(ptr noundef nonnull align 4 dereferenceable(8) %4)
  call void @_ZN2cv11_InputArray4initEiPKv(ptr noundef nonnull align 8 dereferenceable(24) %3, i32 noundef 0, ptr noundef null)
  ret void
}

; Function Attrs: inlinehint mustprogress uwtable
define linkonce_odr hidden void @_ZN2cv12_OutputArrayC2Ev(ptr noundef nonnull align 8 dereferenceable(24) %0) unnamed_addr #10 comdat align 2 {
  %2 = alloca ptr, align 8
  store ptr %0, ptr %2, align 8, !tbaa !78
  %3 = load ptr, ptr %2, align 8
  call void @_ZN2cv11_InputArrayC2Ev(ptr noundef nonnull align 8 dereferenceable(24) %3)
  call void @_ZN2cv11_InputArray4initEiPKv(ptr noundef nonnull align 8 dereferenceable(24) %3, i32 noundef 33554432, ptr noundef null)
  ret void
}

; Function Attrs: inlinehint mustprogress nounwind uwtable
define linkonce_odr hidden void @_ZN2cv11_InputArray4initEiPKv(ptr noundef nonnull align 8 dereferenceable(24) %0, i32 noundef %1, ptr noundef %2) #8 comdat align 2 {
  %4 = alloca ptr, align 8
  %5 = alloca i32, align 4
  %6 = alloca ptr, align 8
  store ptr %0, ptr %4, align 8, !tbaa !74
  store i32 %1, ptr %5, align 4, !tbaa !4
  store ptr %2, ptr %6, align 8, !tbaa !73
  %7 = load ptr, ptr %4, align 8
  %8 = load i32, ptr %5, align 4, !tbaa !4
  %9 = getelementptr inbounds nuw %"class.cv::_InputArray", ptr %7, i32 0, i32 0
  store i32 %8, ptr %9, align 8, !tbaa !214
  %10 = load ptr, ptr %6, align 8, !tbaa !73
  %11 = getelementptr inbounds nuw %"class.cv::_InputArray", ptr %7, i32 0, i32 1
  store ptr %10, ptr %11, align 8, !tbaa !216
  ret void
}

; Function Attrs: inlinehint mustprogress nounwind uwtable
define linkonce_odr hidden void @_ZN2cv5Size_IiEC2Ev(ptr noundef nonnull align 4 dereferenceable(8) %0) unnamed_addr #8 comdat align 2 {
  %2 = alloca ptr, align 8
  store ptr %0, ptr %2, align 8, !tbaa !60
  %3 = load ptr, ptr %2, align 8
  %4 = getelementptr inbounds nuw %"class.cv::Size_", ptr %3, i32 0, i32 0
  store i32 0, ptr %4, align 4, !tbaa !62
  %5 = getelementptr inbounds nuw %"class.cv::Size_", ptr %3, i32 0, i32 1
  store i32 0, ptr %5, align 4, !tbaa !63
  ret void
}

; Function Attrs: inlinehint mustprogress nounwind uwtable
define linkonce_odr hidden void @_ZN2cv11_InputArrayD2Ev(ptr noundef nonnull align 8 dereferenceable(24) %0) unnamed_addr #8 comdat align 2 {
  %2 = alloca ptr, align 8
  store ptr %0, ptr %2, align 8, !tbaa !74
  ret void
}

; Function Attrs: inlinehint mustprogress nounwind uwtable
define linkonce_odr hidden void @_ZN2cv12TermCriteriaC2Eiid(ptr noundef nonnull align 8 dereferenceable(16) %0, i32 noundef %1, i32 noundef %2, double noundef %3) unnamed_addr #8 comdat align 2 {
  %5 = alloca ptr, align 8
  %6 = alloca i32, align 4
  %7 = alloca i32, align 4
  %8 = alloca double, align 8
  store ptr %0, ptr %5, align 8, !tbaa !82
  store i32 %1, ptr %6, align 4, !tbaa !4
  store i32 %2, ptr %7, align 4, !tbaa !4
  store double %3, ptr %8, align 8, !tbaa !40
  %9 = load ptr, ptr %5, align 8
  %10 = getelementptr inbounds nuw %"class.cv::TermCriteria", ptr %9, i32 0, i32 0
  %11 = load i32, ptr %6, align 4, !tbaa !4
  store i32 %11, ptr %10, align 8, !tbaa !84
  %12 = getelementptr inbounds nuw %"class.cv::TermCriteria", ptr %9, i32 0, i32 1
  %13 = load i32, ptr %7, align 4, !tbaa !4
  store i32 %13, ptr %12, align 4, !tbaa !86
  %14 = getelementptr inbounds nuw %"class.cv::TermCriteria", ptr %9, i32 0, i32 2
  %15 = load double, ptr %8, align 8, !tbaa !40
  store double %15, ptr %14, align 8, !tbaa !87
  ret void
}

; Function Attrs: inlinehint mustprogress uwtable
define linkonce_odr hidden void @_ZN2cv12_OutputArrayC2ERSt6vectorINS_3MatESaIS2_EE(ptr noundef nonnull align 8 dereferenceable(24) %0, ptr noundef nonnull align 8 dereferenceable(24) %1) unnamed_addr #10 comdat align 2 {
  %3 = alloca ptr, align 8
  %4 = alloca ptr, align 8
  store ptr %0, ptr %3, align 8, !tbaa !78
  store ptr %1, ptr %4, align 8, !tbaa !50
  %5 = load ptr, ptr %3, align 8
  call void @_ZN2cv11_InputArrayC2Ev(ptr noundef nonnull align 8 dereferenceable(24) %5)
  %6 = load ptr, ptr %4, align 8, !tbaa !50
  call void @_ZN2cv11_InputArray4initEiPKv(ptr noundef nonnull align 8 dereferenceable(24) %5, i32 noundef 33882112, ptr noundef %6)
  ret void
}

; Function Attrs: inlinehint mustprogress uwtable
define linkonce_odr hidden void @_ZN2cv17_InputOutputArrayC2ERNS_3MatE(ptr noundef nonnull align 8 dereferenceable(24) %0, ptr noundef nonnull align 8 dereferenceable(96) %1) unnamed_addr #10 comdat align 2 {
  %3 = alloca ptr, align 8
  %4 = alloca ptr, align 8
  store ptr %0, ptr %3, align 8, !tbaa !80
  store ptr %1, ptr %4, align 8, !tbaa !76
  %5 = load ptr, ptr %3, align 8
  call void @_ZN2cv12_OutputArrayC2Ev(ptr noundef nonnull align 8 dereferenceable(24) %5)
  %6 = load ptr, ptr %4, align 8, !tbaa !76
  call void @_ZN2cv11_InputArray4initEiPKv(ptr noundef nonnull align 8 dereferenceable(24) %5, i32 noundef 50397184, ptr noundef %6)
  ret void
}

; Function Attrs: inlinehint mustprogress uwtable
define linkonce_odr hidden void @_ZN2cv11_InputArrayC2INS_6Point_IfEEEERKSt6vectorIS4_IT_SaIS5_EESaIS7_EE(ptr noundef nonnull align 8 dereferenceable(24) %0, ptr noundef nonnull align 8 dereferenceable(24) %1) unnamed_addr #10 comdat align 2 {
  %3 = alloca ptr, align 8
  %4 = alloca ptr, align 8
  store ptr %0, ptr %3, align 8, !tbaa !74
  store ptr %1, ptr %4, align 8, !tbaa !42
  %5 = load ptr, ptr %3, align 8
  %6 = getelementptr inbounds nuw %"class.cv::_InputArray", ptr %5, i32 0, i32 2
  call void @_ZN2cv5Size_IiEC2Ev(ptr noundef nonnull align 4 dereferenceable(8) %6)
  %7 = load ptr, ptr %4, align 8, !tbaa !42
  call void @_ZN2cv11_InputArray4initEiPKv(ptr noundef nonnull align 8 dereferenceable(24) %5, i32 noundef -2130444275, ptr noundef %7)
  ret void
}

; Function Attrs: inlinehint mustprogress uwtable
define linkonce_odr hidden void @_ZN2cv11_InputArrayC2INS_7Point3_IfEEEERKSt6vectorIS4_IT_SaIS5_EESaIS7_EE(ptr noundef nonnull align 8 dereferenceable(24) %0, ptr noundef nonnull align 8 dereferenceable(24) %1) unnamed_addr #10 comdat align 2 {
  %3 = alloca ptr, align 8
  %4 = alloca ptr, align 8
  store ptr %0, ptr %3, align 8, !tbaa !74
  store ptr %1, ptr %4, align 8, !tbaa !44
  %5 = load ptr, ptr %3, align 8
  %6 = getelementptr inbounds nuw %"class.cv::_InputArray", ptr %5, i32 0, i32 2
  call void @_ZN2cv5Size_IiEC2Ev(ptr noundef nonnull align 4 dereferenceable(8) %6)
  %7 = load ptr, ptr %4, align 8, !tbaa !44
  call void @_ZN2cv11_InputArray4initEiPKv(ptr noundef nonnull align 8 dereferenceable(24) %5, i32 noundef -2130444267, ptr noundef %7)
  ret void
}

; Function Attrs: mustprogress uwtable
define hidden noundef double @_Z9calibrateSt6vectorIS_IN2cv7Point3_IfEESaIS2_EESaIS4_EES_IS_INS0_6Point_IfEESaIS8_EESaISA_EERNS0_3MatESE_RS_ISD_SaISD_EESH_NS0_5Size_IiEE(ptr noundef %0, ptr noundef %1, ptr noundef nonnull align 8 dereferenceable(96) %2, ptr noundef nonnull align 8 dereferenceable(96) %3, ptr noundef nonnull align 8 dereferenceable(24) %4, ptr noundef nonnull align 8 dereferenceable(24) %5, i64 %6) #7 personality ptr @__gxx_personality_v0 {
  %8 = alloca %"class.cv::Size_", align 4
  %9 = alloca ptr, align 8
  %10 = alloca ptr, align 8
  %11 = alloca ptr, align 8
  %12 = alloca ptr, align 8
  %13 = alloca ptr, align 8
  %14 = alloca ptr, align 8
  %15 = alloca i32, align 4
  %16 = alloca double, align 8
  %17 = alloca %"class.cv::_InputArray", align 8
  %18 = alloca %"class.cv::_InputArray", align 8
  %19 = alloca ptr, align 8
  %20 = alloca i32, align 4
  %21 = alloca %"class.cv::Size_", align 4
  %22 = alloca %"class.cv::_InputOutputArray", align 8
  %23 = alloca %"class.cv::_InputOutputArray", align 8
  %24 = alloca %"class.cv::_OutputArray", align 8
  %25 = alloca %"class.cv::_OutputArray", align 8
  %26 = alloca %"class.cv::TermCriteria", align 8
  store i64 %6, ptr %8, align 4
  store ptr %0, ptr %9, align 8, !tbaa !44
  store ptr %1, ptr %10, align 8, !tbaa !42
  store ptr %2, ptr %11, align 8, !tbaa !76
  store ptr %3, ptr %12, align 8, !tbaa !76
  store ptr %4, ptr %13, align 8, !tbaa !50
  store ptr %5, ptr %14, align 8, !tbaa !50
  call void @llvm.lifetime.start.p0(i64 4, ptr %15) #3
  store i32 0, ptr %15, align 4, !tbaa !4
  call void @llvm.lifetime.start.p0(i64 8, ptr %16) #3
  call void @llvm.lifetime.start.p0(i64 24, ptr %17) #3
  call void @_ZN2cv11_InputArrayC2INS_7Point3_IfEEEERKSt6vectorIS4_IT_SaIS5_EESaIS7_EE(ptr noundef nonnull align 8 dereferenceable(24) %17, ptr noundef nonnull align 8 dereferenceable(24) %0)
  call void @llvm.lifetime.start.p0(i64 24, ptr %18) #3
  invoke void @_ZN2cv11_InputArrayC2INS_6Point_IfEEEERKSt6vectorIS4_IT_SaIS5_EESaIS7_EE(ptr noundef nonnull align 8 dereferenceable(24) %18, ptr noundef nonnull align 8 dereferenceable(24) %1)
          to label %27 unwind label %42

27:                                               ; preds = %7
  call void @llvm.memcpy.p0.p0.i64(ptr align 4 %21, ptr align 4 %8, i64 8, i1 false), !tbaa.struct !23
  call void @llvm.lifetime.start.p0(i64 24, ptr %22) #3
  %28 = load ptr, ptr %11, align 8, !tbaa !76
  invoke void @_ZN2cv17_InputOutputArrayC2ERNS_3MatE(ptr noundef nonnull align 8 dereferenceable(24) %22, ptr noundef nonnull align 8 dereferenceable(96) %28)
          to label %29 unwind label %46

29:                                               ; preds = %27
  call void @llvm.lifetime.start.p0(i64 24, ptr %23) #3
  %30 = load ptr, ptr %12, align 8, !tbaa !76
  invoke void @_ZN2cv17_InputOutputArrayC2ERNS_3MatE(ptr noundef nonnull align 8 dereferenceable(24) %23, ptr noundef nonnull align 8 dereferenceable(96) %30)
          to label %31 unwind label %50

31:                                               ; preds = %29
  call void @llvm.lifetime.start.p0(i64 24, ptr %24) #3
  %32 = load ptr, ptr %13, align 8, !tbaa !50
  invoke void @_ZN2cv12_OutputArrayC2ERSt6vectorINS_3MatESaIS2_EE(ptr noundef nonnull align 8 dereferenceable(24) %24, ptr noundef nonnull align 8 dereferenceable(24) %32)
          to label %33 unwind label %54

33:                                               ; preds = %31
  call void @llvm.lifetime.start.p0(i64 24, ptr %25) #3
  %34 = load ptr, ptr %14, align 8, !tbaa !50
  invoke void @_ZN2cv12_OutputArrayC2ERSt6vectorINS_3MatESaIS2_EE(ptr noundef nonnull align 8 dereferenceable(24) %25, ptr noundef nonnull align 8 dereferenceable(24) %34)
          to label %35 unwind label %58

35:                                               ; preds = %33
  %36 = load i32, ptr %15, align 4, !tbaa !4
  invoke void @_ZN2cv12TermCriteriaC2Eiid(ptr noundef nonnull align 8 dereferenceable(16) %26, i32 noundef 3, i32 noundef 30, double noundef 0x3CB0000000000000)
          to label %37 unwind label %62

37:                                               ; preds = %35
  %38 = load i64, ptr %21, align 4
  %39 = invoke noundef double @_ZN2cv15calibrateCameraERKNS_11_InputArrayES2_NS_5Size_IiEERKNS_17_InputOutputArrayES7_RKNS_12_OutputArrayESA_iNS_12TermCriteriaE(ptr noundef nonnull align 8 dereferenceable(24) %17, ptr noundef nonnull align 8 dereferenceable(24) %18, i64 %38, ptr noundef nonnull align 8 dereferenceable(24) %22, ptr noundef nonnull align 8 dereferenceable(24) %23, ptr noundef nonnull align 8 dereferenceable(24) %24, ptr noundef nonnull align 8 dereferenceable(24) %25, i32 noundef %36, ptr noundef byval(%"class.cv::TermCriteria") align 8 %26)
          to label %40 unwind label %62

40:                                               ; preds = %37
  call void @_ZN2cv11_InputArrayD2Ev(ptr noundef nonnull align 8 dereferenceable(24) %25) #3
  call void @llvm.lifetime.end.p0(i64 24, ptr %25) #3
  call void @_ZN2cv11_InputArrayD2Ev(ptr noundef nonnull align 8 dereferenceable(24) %24) #3
  call void @llvm.lifetime.end.p0(i64 24, ptr %24) #3
  call void @_ZN2cv11_InputArrayD2Ev(ptr noundef nonnull align 8 dereferenceable(24) %23) #3
  call void @llvm.lifetime.end.p0(i64 24, ptr %23) #3
  call void @_ZN2cv11_InputArrayD2Ev(ptr noundef nonnull align 8 dereferenceable(24) %22) #3
  call void @llvm.lifetime.end.p0(i64 24, ptr %22) #3
  call void @_ZN2cv11_InputArrayD2Ev(ptr noundef nonnull align 8 dereferenceable(24) %18) #3
  call void @llvm.lifetime.end.p0(i64 24, ptr %18) #3
  call void @_ZN2cv11_InputArrayD2Ev(ptr noundef nonnull align 8 dereferenceable(24) %17) #3
  call void @llvm.lifetime.end.p0(i64 24, ptr %17) #3
  store double %39, ptr %16, align 8, !tbaa !40
  %41 = load double, ptr %16, align 8, !tbaa !40
  call void @llvm.lifetime.end.p0(i64 8, ptr %16) #3
  call void @llvm.lifetime.end.p0(i64 4, ptr %15) #3
  ret double %41

42:                                               ; preds = %7
  %43 = landingpad { ptr, i32 }
          cleanup
  %44 = extractvalue { ptr, i32 } %43, 0
  store ptr %44, ptr %19, align 8
  %45 = extractvalue { ptr, i32 } %43, 1
  store i32 %45, ptr %20, align 4
  br label %70

46:                                               ; preds = %27
  %47 = landingpad { ptr, i32 }
          cleanup
  %48 = extractvalue { ptr, i32 } %47, 0
  store ptr %48, ptr %19, align 8
  %49 = extractvalue { ptr, i32 } %47, 1
  store i32 %49, ptr %20, align 4
  br label %69

50:                                               ; preds = %29
  %51 = landingpad { ptr, i32 }
          cleanup
  %52 = extractvalue { ptr, i32 } %51, 0
  store ptr %52, ptr %19, align 8
  %53 = extractvalue { ptr, i32 } %51, 1
  store i32 %53, ptr %20, align 4
  br label %68

54:                                               ; preds = %31
  %55 = landingpad { ptr, i32 }
          cleanup
  %56 = extractvalue { ptr, i32 } %55, 0
  store ptr %56, ptr %19, align 8
  %57 = extractvalue { ptr, i32 } %55, 1
  store i32 %57, ptr %20, align 4
  br label %67

58:                                               ; preds = %33
  %59 = landingpad { ptr, i32 }
          cleanup
  %60 = extractvalue { ptr, i32 } %59, 0
  store ptr %60, ptr %19, align 8
  %61 = extractvalue { ptr, i32 } %59, 1
  store i32 %61, ptr %20, align 4
  br label %66

62:                                               ; preds = %37, %35
  %63 = landingpad { ptr, i32 }
          cleanup
  %64 = extractvalue { ptr, i32 } %63, 0
  store ptr %64, ptr %19, align 8
  %65 = extractvalue { ptr, i32 } %63, 1
  store i32 %65, ptr %20, align 4
  call void @_ZN2cv11_InputArrayD2Ev(ptr noundef nonnull align 8 dereferenceable(24) %25) #3
  br label %66

66:                                               ; preds = %62, %58
  call void @llvm.lifetime.end.p0(i64 24, ptr %25) #3
  call void @_ZN2cv11_InputArrayD2Ev(ptr noundef nonnull align 8 dereferenceable(24) %24) #3
  br label %67

67:                                               ; preds = %66, %54
  call void @llvm.lifetime.end.p0(i64 24, ptr %24) #3
  call void @_ZN2cv11_InputArrayD2Ev(ptr noundef nonnull align 8 dereferenceable(24) %23) #3
  br label %68

68:                                               ; preds = %67, %50
  call void @llvm.lifetime.end.p0(i64 24, ptr %23) #3
  call void @_ZN2cv11_InputArrayD2Ev(ptr noundef nonnull align 8 dereferenceable(24) %22) #3
  br label %69

69:                                               ; preds = %68, %46
  call void @llvm.lifetime.end.p0(i64 24, ptr %22) #3
  call void @_ZN2cv11_InputArrayD2Ev(ptr noundef nonnull align 8 dereferenceable(24) %18) #3
  br label %70

70:                                               ; preds = %69, %42
  call void @llvm.lifetime.end.p0(i64 24, ptr %18) #3
  call void @_ZN2cv11_InputArrayD2Ev(ptr noundef nonnull align 8 dereferenceable(24) %17) #3
  call void @llvm.lifetime.end.p0(i64 24, ptr %17) #3
  call void @llvm.lifetime.end.p0(i64 8, ptr %16) #3
  call void @llvm.lifetime.end.p0(i64 4, ptr %15) #3
  br label %71

71:                                               ; preds = %70
  %72 = load ptr, ptr %19, align 8
  %73 = load i32, ptr %20, align 4
  %74 = insertvalue { ptr, i32 } poison, ptr %72, 0
  %75 = insertvalue { ptr, i32 } %74, i32 %73, 1
  resume { ptr, i32 } %75
}