; Function Attrs: mustprogress uwtable
define hidden noundef double @_Z9calibrateSt6vectorIS_IN2cv7Point3_IfEESaIS2_EESaIS4_EES_IS_INS0_6Point_IfEESaIS8_EESaISA_EERNS0_3MatESE_RS_ISD_SaISD_EESH_NS0_5Size_IiEE(ptr noundef %0, ptr noundef %1, ptr noundef nonnull align 8 dereferenceable(96) %2, ptr noundef nonnull align 8 dereferenceable(96) %3, ptr noundef nonnull align 8 dereferenceable(24) %4, ptr noundef nonnull align 8 dereferenceable(24) %5, i64 %6) local_unnamed_addr #5 personality ptr @__gxx_personality_v0 {
  %8 = alloca %"class.cv::_InputArray", align 8
  %9 = alloca %"class.cv::_InputArray", align 8
  %10 = alloca %"class.cv::_InputOutputArray", align 8
  %11 = alloca %"class.cv::_InputOutputArray", align 8
  %12 = alloca %"class.cv::_OutputArray", align 8
  %13 = alloca %"class.cv::_OutputArray", align 8
  %14 = alloca %"class.cv::TermCriteria", align 8
  call void @llvm.lifetime.start.p0(i64 24, ptr nonnull %8) #25
  %15 = getelementptr inbounds nuw i8, ptr %8, i64 16
  store i32 0, ptr %15, align 8, !tbaa !59
  %16 = getelementptr inbounds nuw i8, ptr %8, i64 20
  store i32 0, ptr %16, align 4, !tbaa !60
  store i32 -2130444267, ptr %8, align 8, !tbaa !61
  %17 = getelementptr inbounds nuw i8, ptr %8, i64 8
  store ptr %0, ptr %17, align 8, !tbaa !63
  call void @llvm.lifetime.start.p0(i64 24, ptr nonnull %9) #25
  %18 = getelementptr inbounds nuw i8, ptr %9, i64 16
  store i32 0, ptr %18, align 8, !tbaa !59
  %19 = getelementptr inbounds nuw i8, ptr %9, i64 20
  store i32 0, ptr %19, align 4, !tbaa !60
  store i32 -2130444275, ptr %9, align 8, !tbaa !61
  %20 = getelementptr inbounds nuw i8, ptr %9, i64 8
  store ptr %1, ptr %20, align 8, !tbaa !63
  call void @llvm.lifetime.start.p0(i64 24, ptr nonnull %10) #25
  %21 = getelementptr inbounds nuw i8, ptr %10, i64 8
  %22 = getelementptr inbounds nuw i8, ptr %10, i64 16
  store i64 0, ptr %22, align 8
  store i32 50397184, ptr %10, align 8, !tbaa !61
  store ptr %2, ptr %21, align 8, !tbaa !63
  call void @llvm.lifetime.start.p0(i64 24, ptr nonnull %11) #25
  %23 = getelementptr inbounds nuw i8, ptr %11, i64 8
  %24 = getelementptr inbounds nuw i8, ptr %11, i64 16
  store i64 0, ptr %24, align 8
  store i32 50397184, ptr %11, align 8, !tbaa !61
  store ptr %3, ptr %23, align 8, !tbaa !63
  call void @llvm.lifetime.start.p0(i64 24, ptr nonnull %12) #25
  %25 = getelementptr inbounds nuw i8, ptr %12, i64 8
  %26 = getelementptr inbounds nuw i8, ptr %12, i64 16
  store i64 0, ptr %26, align 8
  store i32 33882112, ptr %12, align 8, !tbaa !61
  store ptr %4, ptr %25, align 8, !tbaa !63
  call void @llvm.lifetime.start.p0(i64 24, ptr nonnull %13) #25
  %27 = getelementptr inbounds nuw i8, ptr %13, i64 8
  %28 = getelementptr inbounds nuw i8, ptr %13, i64 16
  store i64 0, ptr %28, align 8
  store i32 33882112, ptr %13, align 8, !tbaa !61
  store ptr %5, ptr %27, align 8, !tbaa !63
  store i32 3, ptr %14, align 8, !tbaa !122
  %29 = getelementptr inbounds nuw i8, ptr %14, i64 4
  store i32 30, ptr %29, align 4, !tbaa !125
  %30 = getelementptr inbounds nuw i8, ptr %14, i64 8
  store double 0x3CB0000000000000, ptr %30, align 8, !tbaa !126
  %31 = call noundef double @_ZN2cv15calibrateCameraERKNS_11_InputArrayES2_NS_5Size_IiEERKNS_17_InputOutputArrayES7_RKNS_12_OutputArrayESA_iNS_12TermCriteriaE(ptr noundef nonnull align 8 dereferenceable(24) %8, ptr noundef nonnull align 8 dereferenceable(24) %9, i64 %6, ptr noundef nonnull align 8 dereferenceable(24) %10, ptr noundef nonnull align 8 dereferenceable(24) %11, ptr noundef nonnull align 8 dereferenceable(24) %12, ptr noundef nonnull align 8 dereferenceable(24) %13, i32 noundef 0, ptr noundef nonnull byval(%"class.cv::TermCriteria") align 8 %14)
  call void @llvm.lifetime.end.p0(i64 24, ptr nonnull %13) #25
  call void @llvm.lifetime.end.p0(i64 24, ptr nonnull %12) #25
  call void @llvm.lifetime.end.p0(i64 24, ptr nonnull %11) #25
  call void @llvm.lifetime.end.p0(i64 24, ptr nonnull %10) #25
  call void @llvm.lifetime.end.p0(i64 24, ptr nonnull %9) #25
  call void @llvm.lifetime.end.p0(i64 24, ptr nonnull %8) #25
  ret double %31
}